; Function Attrs: mustprogress uwtable
define noalias noundef ptr @lean_st_ref_take(ptr noundef captures(none) %0, ptr noundef readnone captures(none) %1) local_unnamed_addr #0 {
  %.val = load i32, ptr %0, align 4, !tbaa !7
  %spec.select.i = icmp slt i32 %.val, 1
  %3 = getelementptr inbounds nuw i8, ptr %0, i64 8
  br i1 %spec.select.i, label %.preheader, label %9

.preheader:                                       ; preds = %2, %.preheader
  %4 = atomicrmw xchg ptr %3, i64 0 seq_cst, align 8
  %.not = icmp eq i64 %4, 0
  br i1 %.not, label %.preheader, label %5, !llvm.loop !108

5:                                                ; preds = %.preheader
  tail call void @lean_inc_heartbeat()
  %6 = tail call noalias ptr @mi_malloc_small(i64 noundef 24) #27
  %7 = icmp eq ptr %6, null
  br i1 %7, label %8, label %.thread

8:                                                ; preds = %5
  tail call void @lean_internal_panic_out_of_memory() #28
  unreachable

.thread:                                          ; preds = %5
  %.0.i.i.le = inttoptr i64 %4 to ptr
  br label %_ZN4lean15io_result_mk_okEP11lean_object.exit11

9:                                                ; preds = %2
  %10 = load ptr, ptr %3, align 8, !tbaa !105
  store ptr null, ptr %3, align 8, !tbaa !105
  tail call void @lean_inc_heartbeat()
  %11 = tail call noalias ptr @mi_malloc_small(i64 noundef 24) #27
  %12 = icmp eq ptr %11, null
  br i1 %12, label %13, label %_ZN4lean15io_result_mk_okEP11lean_object.exit11

13:                                               ; preds = %9
  tail call void @lean_internal_panic_out_of_memory() #28
  unreachable

_ZN4lean15io_result_mk_okEP11lean_object.exit11:  ; preds = %9, %.thread
  %.sink16 = phi ptr [ %6, %.thread ], [ %11, %9 ]
  %.0.i.i.le.sink = phi ptr [ %.0.i.i.le, %.thread ], [ %10, %9 ]
  %14 = getelementptr inbounds nuw i8, ptr %.sink16, i64 4
  store i32 1, ptr %.sink16, align 4, !tbaa !7
  store i32 131096, ptr %14, align 4
  %15 = getelementptr inbounds nuw i8, ptr %.sink16, i64 8
  store ptr %.0.i.i.le.sink, ptr %15, align 8, !tbaa !3
  %16 = getelementptr inbounds nuw i8, ptr %.sink16, i64 16
  store ptr inttoptr (i64 1 to ptr), ptr %16, align 8, !tbaa !3
  ret ptr %.sink16
}